Certificate:
    Data:
        Version: 3 (0x2)
        Serial Number:
            fc:80:85:da:b7:64:45:6d
        Signature Algorithm: sha1WithRSAEncryption
        Issuer: C=IN, ST=Karnataka, O=Geodesic Ltd, OU=Software Systems, CN=DemoCA Master/emailAddress=certmaster@geodesic.com
        Validity
            Not Before: Feb  8 06:27:51 2010 GMT
            Not After : Feb  8 06:27:51 2011 GMT
        Subject: C=IN, ST=Karnataka, L=Bengaluru, O=Geodesic Ltd, OU=Software Systems, CN=gnu.geodesic.net/emailAddress=koushik.narayanan@geodesic.com
        Subject Public Key Info:
            Public Key Algorithm: rsaEncryption
            RSA Public Key: (1024 bit)
                Modulus (1024 bit):
                    00:ae:dd:ef:4e:1c:b9:db:93:dc:77:2e:01:19:4d:
                    49:df:a8:a6:05:d1:21:b1:10:24:ba:5f:e7:df:54:
                    32:81:5c:4c:21:aa:ee:4d:3f:fd:03:55:28:7f:e3:
                    9e:4e:1f:57:5b:5e:28:f2:0b:a3:89:18:0d:7f:bc:
                    7b:61:7e:c0:b5:7e:15:88:bc:dd:52:16:04:56:8a:
                    d6:d2:a1:be:13:44:71:04:fa:2f:50:67:66:81:b8:
                    bd:b7:6c:15:ae:f6:7b:17:1d:62:8e:56:8a:2f:0f:
                    d6:11:d2:2a:ce:5d:37:33:d0:a4:e9:ad:b0:19:42:
                    3f:08:9e:22:6c:19:b5:c4:cd
                Exponent: 65537 (0x10001)
        X509v3 extensions:
            X509v3 Basic Constraints: 
                CA:FALSE
            Netscape Comment: 
                OpenSSL Generated Certificate
            X509v3 Subject Key Identifier: 
                40:E5:11:BB:4B:13:F3:0B:07:A4:DA:22:FE:BE:20:F6:9A:46:91:FA
            X509v3 Authority Key Identifier: 
                keyid:E3:3B:A1:45:02:71:D8:ED:2E:7E:8D:EE:02:83:9A:D3:A5:56:58:C4

    Signature Algorithm: sha1WithRSAEncryption
        6b:03:1d:09:2c:1a:87:7c:f5:07:31:67:d7:84:8a:56:72:0d:
        72:c0:cc:0b:25:ed:76:f7:56:c4:d4:5a:12:3d:42:6b:7e:79:
        06:22:60:4d:2a:4f:52:aa:c9:a0:fc:f7:d5:41:a3:bb:6e:64:
        b2:1f:d0:f9:18:5c:88:08:49:49:83:90:7f:db:c7:28:6d:e8:
        79:c5:7b:c6:31:2a:08:b5:04:62:60:aa:47:cf:c3:fe:2e:8f:
        14:e5:a2:b9:2a:ea:ed:4e:75:8e:24:bf:44:f2:68:0c:c0:e0:
        d5:bc:b3:6c:59:68:58:7b:ae:f8:90:43:d5:f8:3e:c0:08:00:
        6d:92
-----BEGIN CERTIFICATE-----
MIIDPzCCAqigAwIBAgIJAPyAhdq3ZEVtMA0GCSqGSIb3DQEBBQUAMIGTMQswCQYD
VQQGEwJJTjESMBAGA1UECBMJS2FybmF0YWthMRUwEwYDVQQKEwxHZW9kZXNpYyBM
dGQxGTAXBgNVBAsTEFNvZnR3YXJlIFN5c3RlbXMxFjAUBgNVBAMTDURlbW9DQSBN
YXN0ZXIxJjAkBgkqhkiG9w0BCQEWF2NlcnRtYXN0ZXJAZ2VvZGVzaWMuY29tMB4X
DTEwMDIwODA2Mjc1MVoXDTExMDIwODA2Mjc1MVowgbExCzAJBgNVBAYTAklOMRIw
EAYDVQQIEwlLYXJuYXRha2ExEjAQBgNVBAcTCUJlbmdhbHVydTEVMBMGA1UEChMM
R2VvZGVzaWMgTHRkMRkwFwYDVQQLExBTb2Z0d2FyZSBTeXN0ZW1zMRkwFwYDVQQD
ExBnbnUuZ2VvZGVzaWMubmV0MS0wKwYJKoZIhvcNAQkBFh5rb3VzaGlrLm5hcmF5
YW5hbkBnZW9kZXNpYy5jb20wgZ8wDQYJKoZIhvcNAQEBBQADgY0AMIGJAoGBAK7d
704cuduT3HcuARlNSd+opgXRIbEQJLpf599UMoFcTCGq7k0//QNVKH/jnk4fV1te
KPILo4kYDX+8e2F+wLV+FYi83VIWBFaK1tKhvhNEcQT6L1BnZoG4vbdsFa72excd
Yo5Wii8P1hHSKs5dNzPQpOmtsBlCPwieImwZtcTNAgMBAAGjezB5MAkGA1UdEwQC
MAAwLAYJYIZIAYb4QgENBB8WHU9wZW5TU0wgR2VuZXJhdGVkIENlcnRpZmljYXRl
MB0GA1UdDgQWBBRA5RG7SxPzCwek2iL+viD2mkaR+jAfBgNVHSMEGDAWgBTjO6FF
AnHY7S5+je4Cg5rTpVZYxDANBgkqhkiG9w0BAQUFAAOBgQBrAx0JLBqHfPUHMWfX
hIpWcg1ywMwLJe1291bE1FoSPUJrfnkGImBNKk9Sqsmg/PfVQaO7bmSyH9D5GFyI
CElJg5B/28cobeh5xXvGMSoItQRiYKpHz8P+Lo8U5aK5KurtTnWOJL9E8mgMwODV
vLNsWWhYe674kEPV+D7ACABtkg==
-----END CERTIFICATE-----
