Certificate:
    Data:
        Version: 3 (0x2)
        Serial Number:
            fc:80:85:da:b7:64:45:6c
        Signature Algorithm: sha1WithRSAEncryption
        Issuer: C=IN, ST=Karnataka, O=Geodesic Ltd, OU=Software Systems, CN=DemoCA Master/emailAddress=certmaster@geodesic.com
        Validity
            Not Before: Feb  8 06:24:28 2010 GMT
            Not After : Feb  8 06:24:28 2011 GMT
        Subject: C=IN, ST=Karnataka, L=Bengaluru, O=Geodesic Ltd, OU=Software Systems, CN=gnu.geodesic.net/emailAddress=koushik.narayanan@geodesic.com
        Subject Public Key Info:
            Public Key Algorithm: rsaEncryption
            RSA Public Key: (1024 bit)
                Modulus (1024 bit):
                    00:d4:82:31:cc:4f:e2:c8:70:64:69:1c:bd:19:e4:
                    4a:d0:06:b0:67:65:bd:78:4e:5e:a1:4b:aa:f8:5e:
                    35:6d:22:5f:84:4a:f0:16:88:2a:3e:13:2a:46:91:
                    97:d7:ff:12:33:5a:ed:90:7f:0b:84:22:40:c9:d4:
                    24:94:8e:8f:03:77:71:b0:31:55:6e:24:99:45:a8:
                    9b:ac:83:ca:f5:f9:15:f4:36:58:48:dd:04:df:49:
                    26:b3:2f:bb:94:d2:40:6e:fd:ff:ee:46:32:f8:52:
                    ac:58:1a:b0:d8:c4:54:84:28:b6:64:18:44:14:6a:
                    e6:a0:8d:44:96:f8:c2:1c:f9
                Exponent: 65537 (0x10001)
        X509v3 extensions:
            X509v3 Basic Constraints: 
                CA:FALSE
            Netscape Comment: 
                OpenSSL Generated Certificate
            X509v3 Subject Key Identifier: 
                6A:83:F0:D1:5B:B5:63:44:F4:16:7C:BC:78:6A:52:7A:EF:C2:CA:1F
            X509v3 Authority Key Identifier: 
                keyid:E3:3B:A1:45:02:71:D8:ED:2E:7E:8D:EE:02:83:9A:D3:A5:56:58:C4

    Signature Algorithm: sha1WithRSAEncryption
        91:ad:4e:51:54:80:b8:67:05:81:18:a0:9c:a7:4f:de:cc:02:
        5b:a7:90:6d:84:74:76:0d:ea:01:7b:5c:b5:ae:51:d4:8f:14:
        0f:5d:c4:09:e9:ed:53:14:37:1c:fe:b2:dc:84:79:85:bf:b8:
        91:96:a4:ff:ea:8a:07:95:89:57:78:9a:c5:81:be:e9:a5:29:
        7d:a6:82:33:90:0e:fe:31:64:f1:07:10:40:a3:fd:05:69:59:
        d1:40:46:93:ba:78:00:f6:90:e7:03:9d:99:96:4c:06:72:6c:
        d9:af:a3:e2:1f:f0:e9:17:e9:b9:34:e6:57:49:9d:49:16:09:
        19:b1
-----BEGIN CERTIFICATE-----
MIIDPzCCAqigAwIBAgIJAPyAhdq3ZEVsMA0GCSqGSIb3DQEBBQUAMIGTMQswCQYD
VQQGEwJJTjESMBAGA1UECBMJS2FybmF0YWthMRUwEwYDVQQKEwxHZW9kZXNpYyBM
dGQxGTAXBgNVBAsTEFNvZnR3YXJlIFN5c3RlbXMxFjAUBgNVBAMTDURlbW9DQSBN
YXN0ZXIxJjAkBgkqhkiG9w0BCQEWF2NlcnRtYXN0ZXJAZ2VvZGVzaWMuY29tMB4X
DTEwMDIwODA2MjQyOFoXDTExMDIwODA2MjQyOFowgbExCzAJBgNVBAYTAklOMRIw
EAYDVQQIEwlLYXJuYXRha2ExEjAQBgNVBAcTCUJlbmdhbHVydTEVMBMGA1UEChMM
R2VvZGVzaWMgTHRkMRkwFwYDVQQLExBTb2Z0d2FyZSBTeXN0ZW1zMRkwFwYDVQQD
ExBnbnUuZ2VvZGVzaWMubmV0MS0wKwYJKoZIhvcNAQkBFh5rb3VzaGlrLm5hcmF5
YW5hbkBnZW9kZXNpYy5jb20wgZ8wDQYJKoZIhvcNAQEBBQADgY0AMIGJAoGBANSC
McxP4shwZGkcvRnkStAGsGdlvXhOXqFLqvheNW0iX4RK8BaIKj4TKkaRl9f/EjNa
7ZB/C4QiQMnUJJSOjwN3cbAxVW4kmUWom6yDyvX5FfQ2WEjdBN9JJrMvu5TSQG79
/+5GMvhSrFgasNjEVIQotmQYRBRq5qCNRJb4whz5AgMBAAGjezB5MAkGA1UdEwQC
MAAwLAYJYIZIAYb4QgENBB8WHU9wZW5TU0wgR2VuZXJhdGVkIENlcnRpZmljYXRl
MB0GA1UdDgQWBBRqg/DRW7VjRPQWfLx4alJ678LKHzAfBgNVHSMEGDAWgBTjO6FF
AnHY7S5+je4Cg5rTpVZYxDANBgkqhkiG9w0BAQUFAAOBgQCRrU5RVIC4ZwWBGKCc
p0/ezAJbp5BthHR2DeoBe1y1rlHUjxQPXcQJ6e1TFDcc/rLchHmFv7iRlqT/6ooH
lYlXeJrFgb7ppSl9poIzkA7+MWTxBxBAo/0FaVnRQEaTungA9pDnA52ZlkwGcmzZ
r6PiH/DpF+m5NOZXSZ1JFgkZsQ==
-----END CERTIFICATE-----
