Certificate:
    Data:
        Version: 3 (0x2)
        Serial Number:
            fc:80:85:da:b7:64:45:6a
        Signature Algorithm: sha1WithRSAEncryption
        Issuer: C=IN, ST=Karnataka, O=Geodesic Ltd, OU=Software Systems, CN=DemoCA Master/emailAddress=certmaster@geodesic.com
        Validity
            Not Before: Feb  8 05:57:54 2010 GMT
            Not After : Feb  7 05:57:54 2013 GMT
        Subject: C=IN, ST=Karnataka, O=Geodesic Ltd, OU=Software Systems, CN=DemoCA Master/emailAddress=certmaster@geodesic.com
        Subject Public Key Info:
            Public Key Algorithm: rsaEncryption
            RSA Public Key: (1024 bit)
                Modulus (1024 bit):
                    00:b3:64:58:f2:66:17:f4:0f:94:25:a8:94:ce:98:
                    79:ae:b9:01:30:e0:66:49:d7:e5:8e:0b:c9:1d:22:
                    8a:7f:58:a3:ee:00:24:43:49:2f:30:e4:df:e9:4f:
                    f9:d7:95:9f:f6:12:1d:93:68:8f:03:ef:12:10:7b:
                    0b:5f:f4:20:98:b8:6b:5a:fa:09:5b:0b:87:8e:2e:
                    7b:b1:89:a3:23:cf:50:7b:9b:34:15:17:83:1e:06:
                    fd:36:11:01:c1:3d:cf:ad:9d:99:80:7a:67:31:70:
                    e5:6c:4f:71:62:7a:68:6b:86:dc:d3:a0:1e:a1:88:
                    e5:4b:1f:53:33:0d:66:cf:ab
                Exponent: 65537 (0x10001)
        X509v3 extensions:
            X509v3 Subject Key Identifier: 
                E3:3B:A1:45:02:71:D8:ED:2E:7E:8D:EE:02:83:9A:D3:A5:56:58:C4
            X509v3 Authority Key Identifier: 
                keyid:E3:3B:A1:45:02:71:D8:ED:2E:7E:8D:EE:02:83:9A:D3:A5:56:58:C4
                DirName:/C=IN/ST=Karnataka/O=Geodesic Ltd/OU=Software Systems/CN=DemoCA Master/emailAddress=certmaster@geodesic.com
                serial:FC:80:85:DA:B7:64:45:6A

            X509v3 Basic Constraints: 
                CA:TRUE
    Signature Algorithm: sha1WithRSAEncryption
        10:bf:ee:4e:1b:4d:56:be:3a:5b:a3:65:f5:c5:ad:f9:0b:36:
        fa:cb:9f:19:40:2d:0c:0a:b2:f0:24:12:72:18:3d:9d:06:d1:
        69:02:05:d6:57:74:fa:9f:66:da:58:95:64:b2:56:18:83:03:
        1a:f3:b5:d4:ce:a6:11:1b:92:e0:db:92:e6:5f:e7:4f:6e:e5:
        b2:7f:e8:b8:a3:6f:94:19:83:bd:b1:a3:1c:8b:c9:62:ac:88:
        cd:75:35:25:24:f5:2e:a1:48:20:1f:60:93:a2:b9:cb:80:c5:
        11:c3:8b:bf:fd:fe:39:0b:2d:73:5a:40:e1:8f:32:cb:55:85:
        ef:2c
-----BEGIN CERTIFICATE-----
MIIDojCCAwugAwIBAgIJAPyAhdq3ZEVqMA0GCSqGSIb3DQEBBQUAMIGTMQswCQYD
VQQGEwJJTjESMBAGA1UECBMJS2FybmF0YWthMRUwEwYDVQQKEwxHZW9kZXNpYyBM
dGQxGTAXBgNVBAsTEFNvZnR3YXJlIFN5c3RlbXMxFjAUBgNVBAMTDURlbW9DQSBN
YXN0ZXIxJjAkBgkqhkiG9w0BCQEWF2NlcnRtYXN0ZXJAZ2VvZGVzaWMuY29tMB4X
DTEwMDIwODA1NTc1NFoXDTEzMDIwNzA1NTc1NFowgZMxCzAJBgNVBAYTAklOMRIw
EAYDVQQIEwlLYXJuYXRha2ExFTATBgNVBAoTDEdlb2Rlc2ljIEx0ZDEZMBcGA1UE
CxMQU29mdHdhcmUgU3lzdGVtczEWMBQGA1UEAxMNRGVtb0NBIE1hc3RlcjEmMCQG
CSqGSIb3DQEJARYXY2VydG1hc3RlckBnZW9kZXNpYy5jb20wgZ8wDQYJKoZIhvcN
AQEBBQADgY0AMIGJAoGBALNkWPJmF/QPlCWolM6Yea65ATDgZknX5Y4LyR0iin9Y
o+4AJENJLzDk3+lP+deVn/YSHZNojwPvEhB7C1/0IJi4a1r6CVsLh44ue7GJoyPP
UHubNBUXgx4G/TYRAcE9z62dmYB6ZzFw5WxPcWJ6aGuG3NOgHqGI5UsfUzMNZs+r
AgMBAAGjgfswgfgwHQYDVR0OBBYEFOM7oUUCcdjtLn6N7gKDmtOlVljEMIHIBgNV
HSMEgcAwgb2AFOM7oUUCcdjtLn6N7gKDmtOlVljEoYGZpIGWMIGTMQswCQYDVQQG
EwJJTjESMBAGA1UECBMJS2FybmF0YWthMRUwEwYDVQQKEwxHZW9kZXNpYyBMdGQx
GTAXBgNVBAsTEFNvZnR3YXJlIFN5c3RlbXMxFjAUBgNVBAMTDURlbW9DQSBNYXN0
ZXIxJjAkBgkqhkiG9w0BCQEWF2NlcnRtYXN0ZXJAZ2VvZGVzaWMuY29tggkA/ICF
2rdkRWowDAYDVR0TBAUwAwEB/zANBgkqhkiG9w0BAQUFAAOBgQAQv+5OG01Wvjpb
o2X1xa35Czb6y58ZQC0MCrLwJBJyGD2dBtFpAgXWV3T6n2baWJVkslYYgwMa87XU
zqYRG5Lg25LmX+dPbuWyf+i4o2+UGYO9saMci8lirIjNdTUlJPUuoUggH2CTornL
gMURw4u//f45Cy1zWkDhjzLLVYXvLA==
-----END CERTIFICATE-----
