Certificate:
    Data:
        Version: 3 (0x2)
        Serial Number:
            fc:80:85:da:b7:64:45:6b
        Signature Algorithm: sha1WithRSAEncryption
        Issuer: C=IN, ST=Karnataka, O=Geodesic Ltd, OU=Software Systems, CN=DemoCA Master/emailAddress=certmaster@geodesic.com
        Validity
            Not Before: Feb  8 06:03:18 2010 GMT
            Not After : Feb  8 06:03:18 2011 GMT
        Subject: C=IN, ST=Karnataka, L=Bengaluru, O=Geodesic Ltd, OU=Software Systems, CN=gnu.geodesic.net/emailAddress=koushik.narayanan@geodesic.com
        Subject Public Key Info:
            Public Key Algorithm: rsaEncryption
            RSA Public Key: (1024 bit)
                Modulus (1024 bit):
                    00:c3:ad:0c:ae:e9:b3:24:93:4d:ae:db:9c:d0:c8:
                    c4:d8:49:64:19:91:3b:22:af:d9:e2:07:6c:53:5c:
                    92:58:de:40:53:8c:18:14:5a:45:7c:1f:d5:e0:89:
                    1e:e3:0a:9d:14:c3:f3:32:86:eb:64:d0:05:b3:d2:
                    d5:a6:61:a4:fd:24:08:82:05:5d:a2:62:5e:76:51:
                    27:ce:29:50:f4:a9:ce:f1:94:bd:e1:78:e6:9f:e4:
                    d8:3b:9a:06:cd:9f:f3:21:fa:02:db:e7:ec:ba:2d:
                    b8:98:e9:cb:89:08:17:8d:4e:b2:4f:12:ec:6a:7c:
                    d3:d4:6e:3c:f7:50:1e:48:b1
                Exponent: 65537 (0x10001)
        X509v3 extensions:
            X509v3 Basic Constraints: 
                CA:FALSE
            Netscape Comment: 
                OpenSSL Generated Certificate
            X509v3 Subject Key Identifier: 
                C0:E4:17:3E:42:01:C6:0B:F5:8E:81:14:74:73:10:41:27:2D:B0:48
            X509v3 Authority Key Identifier: 
                keyid:E3:3B:A1:45:02:71:D8:ED:2E:7E:8D:EE:02:83:9A:D3:A5:56:58:C4

    Signature Algorithm: sha1WithRSAEncryption
        8d:de:c2:60:f9:ab:31:38:06:77:81:59:d2:a3:36:6e:4c:82:
        c7:28:c8:e8:a9:34:a6:cf:68:5d:a6:6b:7a:60:6d:76:b2:01:
        2d:32:66:6c:cc:f2:cd:a9:6b:b1:74:ed:9e:ac:10:04:88:8c:
        ad:00:e4:c1:c8:53:82:e0:00:52:43:ed:a2:c7:5a:f2:80:59:
        c3:3d:c7:cb:94:63:c2:3c:ca:14:e4:75:44:44:3c:60:62:3c:
        c0:2a:bb:1f:28:e9:bd:df:32:96:a7:4f:e4:82:65:21:78:00:
        2a:1b:35:ba:1d:a1:f8:71:8a:36:81:82:a0:1a:e9:e1:1e:51:
        01:66
-----BEGIN CERTIFICATE-----
MIIDPzCCAqigAwIBAgIJAPyAhdq3ZEVrMA0GCSqGSIb3DQEBBQUAMIGTMQswCQYD
VQQGEwJJTjESMBAGA1UECBMJS2FybmF0YWthMRUwEwYDVQQKEwxHZW9kZXNpYyBM
dGQxGTAXBgNVBAsTEFNvZnR3YXJlIFN5c3RlbXMxFjAUBgNVBAMTDURlbW9DQSBN
YXN0ZXIxJjAkBgkqhkiG9w0BCQEWF2NlcnRtYXN0ZXJAZ2VvZGVzaWMuY29tMB4X
DTEwMDIwODA2MDMxOFoXDTExMDIwODA2MDMxOFowgbExCzAJBgNVBAYTAklOMRIw
EAYDVQQIEwlLYXJuYXRha2ExEjAQBgNVBAcTCUJlbmdhbHVydTEVMBMGA1UEChMM
R2VvZGVzaWMgTHRkMRkwFwYDVQQLExBTb2Z0d2FyZSBTeXN0ZW1zMRkwFwYDVQQD
ExBnbnUuZ2VvZGVzaWMubmV0MS0wKwYJKoZIhvcNAQkBFh5rb3VzaGlrLm5hcmF5
YW5hbkBnZW9kZXNpYy5jb20wgZ8wDQYJKoZIhvcNAQEBBQADgY0AMIGJAoGBAMOt
DK7psySTTa7bnNDIxNhJZBmROyKv2eIHbFNckljeQFOMGBRaRXwf1eCJHuMKnRTD
8zKG62TQBbPS1aZhpP0kCIIFXaJiXnZRJ84pUPSpzvGUveF45p/k2DuaBs2f8yH6
Atvn7LotuJjpy4kIF41Osk8S7Gp809RuPPdQHkixAgMBAAGjezB5MAkGA1UdEwQC
MAAwLAYJYIZIAYb4QgENBB8WHU9wZW5TU0wgR2VuZXJhdGVkIENlcnRpZmljYXRl
MB0GA1UdDgQWBBTA5Bc+QgHGC/WOgRR0cxBBJy2wSDAfBgNVHSMEGDAWgBTjO6FF
AnHY7S5+je4Cg5rTpVZYxDANBgkqhkiG9w0BAQUFAAOBgQCN3sJg+asxOAZ3gVnS
ozZuTILHKMjoqTSmz2hdpmt6YG12sgEtMmZszPLNqWuxdO2erBAEiIytAOTByFOC
4ABSQ+2ix1rygFnDPcfLlGPCPMoU5HVERDxgYjzAKrsfKOm93zKWp0/kgmUheAAq
GzW6HaH4cYo2gYKgGunhHlEBZg==
-----END CERTIFICATE-----
